; ModuleID = 'source-C-CXX/24/850.cpp'
source_filename = "source-C-CXX/24/850.cpp"
target datalayout = "e-m:e-p270:32:32-p271:32:32-p272:64:64-i64:64-f80:128-n8:16:32:64-S128"
target triple = "x86_64-pc-linux-gnu"

%"class.std::ios_base::Init" = type { i8 }
%"class.std::basic_istream" = type { i32 (...)**, i64, %"class.std::basic_ios" }
%"class.std::basic_ios" = type { %"class.std::ios_base", %"class.std::basic_ostream"*, i8, i8, %"class.std::basic_streambuf"*, %"class.std::ctype"*, %"class.std::num_put"*, %"class.std::num_get"* }
%"class.std::ios_base" = type { i32 (...)**, i64, i64, i32, i32, i32, %"struct.std::ios_base::_Callback_list"*, %"struct.std::ios_base::_Words", [8 x %"struct.std::ios_base::_Words"], i32, %"struct.std::ios_base::_Words"*, %"class.std::locale" }
%"struct.std::ios_base::_Callback_list" = type { %"struct.std::ios_base::_Callback_list"*, void (i32, %"class.std::ios_base"*, i32)*, i32, i32 }
%"struct.std::ios_base::_Words" = type { i8*, i64 }
%"class.std::locale" = type { %"class.std::locale::_Impl"* }
%"class.std::locale::_Impl" = type { i32, %"class.std::locale::facet"**, i64, %"class.std::locale::facet"**, i8** }
%"class.std::locale::facet" = type <{ i32 (...)**, i32, [4 x i8] }>
%"class.std::basic_ostream" = type { i32 (...)**, %"class.std::basic_ios" }
%"class.std::basic_streambuf" = type { i32 (...)**, i8*, i8*, i8*, i8*, i8*, i8*, %"class.std::locale" }
%"class.std::ctype" = type <{ %"class.std::locale::facet.base", [4 x i8], %struct.__locale_struct*, i8, [7 x i8], i32*, i32*, i16*, i8, [256 x i8], [256 x i8], i8, [6 x i8] }>
%"class.std::locale::facet.base" = type <{ i32 (...)**, i32 }>
%struct.__locale_struct = type { [13 x %struct.__locale_data*], i16*, i32*, i32*, [13 x i8*] }
%struct.__locale_data = type opaque
%"class.std::num_put" = type { %"class.std::locale::facet.base", [4 x i8] }
%"class.std::num_get" = type { %"class.std::locale::facet.base", [4 x i8] }

@_ZStL8__ioinit = internal global %"class.std::ios_base::Init" zeroinitializer, align 1
@__dso_handle = external hidden global i8
@_ZSt3cin = external global %"class.std::basic_istream", align 8
@_ZSt4cout = external global %"class.std::basic_ostream", align 8
@llvm.global_ctors = appending global [1 x { i32, void ()*, i8* }] [{ i32, void ()*, i8* } { i32 65535, void ()* @_GLOBAL__sub_I_850.cpp, i8* null }]

declare void @_ZNSt8ios_base4InitC1Ev(%"class.std::ios_base::Init"* nonnull align 1 dereferenceable(1)) unnamed_addr #0

; Function Attrs: nounwind
declare void @_ZNSt8ios_base4InitD1Ev(%"class.std::ios_base::Init"* nonnull align 1 dereferenceable(1)) unnamed_addr #1

; Function Attrs: nofree nounwind
declare i32 @__cxa_atexit(void (i8*)*, i8*, i8*) local_unnamed_addr #2

; Function Attrs: mustprogress norecurse sspstrong uwtable
define dso_local i32 @main() local_unnamed_addr #3 {
  %1 = alloca [100 x i32], align 16
  %2 = alloca i32, align 4
  %3 = bitcast [100 x i32]* %1 to i8*
  call void @llvm.lifetime.start.p0i8(i64 400, i8* nonnull %3) #7
  call void @llvm.memset.p0i8.i64(i8* noundef nonnull align 16 dereferenceable(400) %3, i8 0, i64 400, i1 false)
  %4 = bitcast i32* %2 to i8*
  call void @llvm.lifetime.start.p0i8(i64 4, i8* nonnull %4) #7
  %5 = getelementptr inbounds [100 x i32], [100 x i32]* %1, i64 0, i64 99
  store i32 1, i32* %5, align 4, !tbaa !5
  %6 = call nonnull align 8 dereferenceable(16) %"class.std::basic_istream"* @_ZNSirsERi(%"class.std::basic_istream"* nonnull align 8 dereferenceable(16) @_ZSt3cin, i32* nonnull align 4 dereferenceable(4) %2)
  %7 = load i32, i32* %2, align 4, !tbaa !5
  %8 = icmp sgt i32 %7, 0
  br i1 %8, label %9, label %37

9:                                                ; preds = %0, %34
  %10 = phi i32 [ %35, %34 ], [ 0, %0 ]
  %11 = phi i32 [ %31, %34 ], [ undef, %0 ]
  br label %12

12:                                               ; preds = %9, %27
  %13 = phi i64 [ 0, %9 ], [ %32, %27 ]
  %14 = phi i32 [ %11, %9 ], [ %31, %27 ]
  %15 = getelementptr inbounds [100 x i32], [100 x i32]* %1, i64 0, i64 %13
  %16 = load i32, i32* %15, align 4, !tbaa !5
  %17 = icmp sgt i32 %16, 4
  br i1 %17, label %20, label %18

18:                                               ; preds = %12
  %19 = shl nsw i32 %16, 1
  br label %27

20:                                               ; preds = %12
  %21 = add nsw i64 %13, -1
  %22 = getelementptr inbounds [100 x i32], [100 x i32]* %1, i64 0, i64 %21
  %23 = load i32, i32* %22, align 4, !tbaa !5
  %24 = add nsw i32 %23, 1
  store i32 %24, i32* %22, align 4, !tbaa !5
  %25 = shl nuw nsw i32 %16, 1
  %26 = add nsw i32 %25, -10
  br label %27

27:                                               ; preds = %18, %20
  %28 = phi i32 [ %19, %18 ], [ %25, %20 ]
  %29 = phi i32 [ %14, %18 ], [ %26, %20 ]
  %30 = icmp slt i32 %16, 5
  %31 = select i1 %30, i32 %28, i32 %29
  store i32 %31, i32* %15, align 4, !tbaa !5
  %32 = add nuw nsw i64 %13, 1
  %33 = icmp eq i64 %32, 100
  br i1 %33, label %34, label %12, !llvm.loop !9

34:                                               ; preds = %27
  %35 = add nuw nsw i32 %10, 1
  %36 = icmp eq i32 %35, %7
  br i1 %36, label %37, label %9, !llvm.loop !11

37:                                               ; preds = %34, %0
  br label %38

38:                                               ; preds = %80, %37
  %39 = phi i64 [ 0, %37 ], [ %81, %80 ]
  %40 = getelementptr inbounds [100 x i32], [100 x i32]* %1, i64 0, i64 %39
  %41 = load i32, i32* %40, align 4, !tbaa !5
  %42 = icmp eq i32 %41, 0
  br i1 %42, label %59, label %43

43:                                               ; preds = %75, %70, %65, %59, %38
  %44 = phi i64 [ %39, %38 ], [ %60, %59 ], [ %66, %65 ], [ %71, %70 ], [ %76, %75 ]
  %45 = phi i32 [ %41, %38 ], [ %62, %59 ], [ %68, %65 ], [ %73, %70 ], [ %78, %75 ]
  %46 = trunc i64 %44 to i32
  %47 = icmp ult i32 %46, 100
  br i1 %47, label %48, label %64

48:                                               ; preds = %43
  %49 = call nonnull align 8 dereferenceable(8) %"class.std::basic_ostream"* @_ZNSolsEi(%"class.std::basic_ostream"* nonnull align 8 dereferenceable(8) @_ZSt4cout, i32 %45)
  %50 = add nuw nsw i64 %44, 1
  %51 = icmp eq i64 %50, 100
  br i1 %51, label %64, label %52, !llvm.loop !12

52:                                               ; preds = %48, %52
  %53 = phi i64 [ %57, %52 ], [ %50, %48 ]
  %54 = getelementptr inbounds [100 x i32], [100 x i32]* %1, i64 0, i64 %53
  %55 = load i32, i32* %54, align 4, !tbaa !5
  %56 = call nonnull align 8 dereferenceable(8) %"class.std::basic_ostream"* @_ZNSolsEi(%"class.std::basic_ostream"* nonnull align 8 dereferenceable(8) @_ZSt4cout, i32 %55)
  %57 = add nuw nsw i64 %53, 1
  %58 = icmp eq i64 %57, 100
  br i1 %58, label %64, label %52, !llvm.loop !12

59:                                               ; preds = %38
  %60 = add nuw nsw i64 %39, 1
  %61 = getelementptr inbounds [100 x i32], [100 x i32]* %1, i64 0, i64 %60
  %62 = load i32, i32* %61, align 4, !tbaa !5
  %63 = icmp eq i32 %62, 0
  br i1 %63, label %65, label %43

64:                                               ; preds = %80, %52, %48, %43
  call void @llvm.lifetime.end.p0i8(i64 4, i8* nonnull %4) #7
  call void @llvm.lifetime.end.p0i8(i64 400, i8* nonnull %3) #7
  ret i32 0

65:                                               ; preds = %59
  %66 = add nuw nsw i64 %39, 2
  %67 = getelementptr inbounds [100 x i32], [100 x i32]* %1, i64 0, i64 %66
  %68 = load i32, i32* %67, align 4, !tbaa !5
  %69 = icmp eq i32 %68, 0
  br i1 %69, label %70, label %43

70:                                               ; preds = %65
  %71 = add nuw nsw i64 %39, 3
  %72 = getelementptr inbounds [100 x i32], [100 x i32]* %1, i64 0, i64 %71
  %73 = load i32, i32* %72, align 4, !tbaa !5
  %74 = icmp eq i32 %73, 0
  br i1 %74, label %75, label %43

75:                                               ; preds = %70
  %76 = add nuw nsw i64 %39, 4
  %77 = getelementptr inbounds [100 x i32], [100 x i32]* %1, i64 0, i64 %76
  %78 = load i32, i32* %77, align 4, !tbaa !5
  %79 = icmp eq i32 %78, 0
  br i1 %79, label %80, label %43

80:                                               ; preds = %75
  %81 = add nuw nsw i64 %39, 5
  %82 = icmp eq i64 %81, 100
  br i1 %82, label %64, label %38, !llvm.loop !13
}

; Function Attrs: argmemonly mustprogress nofree nosync nounwind willreturn
declare void @llvm.lifetime.start.p0i8(i64 immarg, i8* nocapture) #4

; Function Attrs: argmemonly mustprogress nofree nounwind willreturn writeonly
declare void @llvm.memset.p0i8.i64(i8* nocapture writeonly, i8, i64, i1 immarg) #5

declare nonnull align 8 dereferenceable(16) %"class.std::basic_istream"* @_ZNSirsERi(%"class.std::basic_istream"* nonnull align 8 dereferenceable(16), i32* nonnull align 4 dereferenceable(4)) local_unnamed_addr #0

declare nonnull align 8 dereferenceable(8) %"class.std::basic_ostream"* @_ZNSolsEi(%"class.std::basic_ostream"* nonnull align 8 dereferenceable(8), i32) local_unnamed_addr #0

; Function Attrs: argmemonly mustprogress nofree nosync nounwind willreturn
declare void @llvm.lifetime.end.p0i8(i64 immarg, i8* nocapture) #4

; Function Attrs: sspstrong uwtable
define internal void @_GLOBAL__sub_I_850.cpp() #6 section ".text.startup" {
  tail call void @_ZNSt8ios_base4InitC1Ev(%"class.std::ios_base::Init"* nonnull align 1 dereferenceable(1) @_ZStL8__ioinit)
  %1 = tail call i32 @__cxa_atexit(void (i8*)* bitcast (void (%"class.std::ios_base::Init"*)* @_ZNSt8ios_base4InitD1Ev to void (i8*)*), i8* getelementptr inbounds (%"class.std::ios_base::Init", %"class.std::ios_base::Init"* @_ZStL8__ioinit, i64 0, i32 0), i8* nonnull @__dso_handle) #7
  ret void
}


!llvm.module.flags = !{!0, !1, !2, !3}
!llvm.ident = !{!4}

!0 = !{i32 1, !"wchar_size", i32 4}
!1 = !{i32 7, !"PIC Level", i32 2}
!2 = !{i32 7, !"PIE Level", i32 2}
!3 = !{i32 7, !"uwtable", i32 1}
!4 = !{!"clang version 13.0.0"}
!5 = !{!6, !6, i64 0}
!6 = !{!"int", !7, i64 0}
!7 = !{!"omnipotent char", !8, i64 0}
!8 = !{!"Simple C++ TBAA"}
!9 = distinct !{!9, !10}
!10 = !{!"llvm.loop.mustprogress"}
!11 = distinct !{!11, !10}
!12 = distinct !{!12, !10}
!13 = distinct !{!13, !10}
